; Function Attrs: nofree norecurse nosync nounwind memory(readwrite, inaccessiblemem: none) uwtable
define internal void @sgrproj_filter_stripe_highbd(ptr noundef readonly captures(none) %0, i32 noundef %1, i32 noundef %2, i32 noundef %3, ptr noundef %4, i32 noundef %5, ptr noundef %6, i32 noundef %7, ptr noundef captures(none) %8, i32 noundef %9) #4 {
  %11 = icmp sgt i32 %1, 0
  br i1 %11, label %.lr.ph, label %._crit_edge

.lr.ph:                                           ; preds = %10
  %12 = getelementptr inbounds nuw i8, ptr %0, i64 48
  %13 = getelementptr inbounds nuw i8, ptr %0, i64 52
  %14 = sext i32 %3 to i64
  %15 = zext nneg i32 %1 to i64
  br label %16

16:                                               ; preds = %.lr.ph, %16
  %indvars.iv = phi i64 [ 0, %.lr.ph ], [ %indvars.iv.next, %16 ]
  %17 = trunc i64 %indvars.iv to i32
  %18 = sub i32 %1, %17
  %19 = tail call i32 @llvm.smin.i32(i32 %3, i32 %18)
  %20 = getelementptr inbounds i8, ptr %4, i64 %indvars.iv
  %21 = load i32, ptr %12, align 16
  %22 = getelementptr inbounds i8, ptr %6, i64 %indvars.iv
  tail call void @av1_apply_selfguided_restoration_c(ptr noundef %20, i32 noundef %19, i32 noundef %2, i32 noundef %5, i32 noundef %21, ptr noundef nonnull %13, ptr noundef %22, i32 noundef %7, ptr noundef %8, i32 noundef %9, i32 noundef 1)
  %indvars.iv.next = add nsw i64 %indvars.iv, %14
  %23 = icmp slt i64 %indvars.iv.next, %15
  br i1 %23, label %16, label %._crit_edge, !llvm.loop !62

._crit_edge:                                      ; preds = %16, %10
  ret void
}